target datalayout = "e-m:e-p270:32:32-p271:32:32-p272:64:64-i64:64-i128:128-f80:128-n8:16:32:64-S128"
target triple = "x86_64-pc-linux-gnu"

%class.SampleEditPlugin = type <{ %class.QObject, %class.EditTool, %class.QPoint, %class.QFont, i8, [3 x i8], i32, ptr, ptr, %"class.std::vector.16", %"class.std::vector.21", i32, [4 x i8] }>
%class.QObject = type { ptr, %class.QScopedPointer }
%class.QScopedPointer = type { ptr }
%class.EditTool = type { %class.MeshLabPluginLogger }
%class.MeshLabPluginLogger = type { ptr, ptr }
%class.QPoint = type { i32, i32 }
%class.QFont = type <{ %class.QExplicitlySharedDataPointer, i32, [4 x i8] }>
%class.QExplicitlySharedDataPointer = type { ptr }
%"class.std::vector.16" = type { %"struct.std::_Vector_base.17" }
%"struct.std::_Vector_base.17" = type { %"struct.std::_Vector_base<CFaceO *, std::allocator<CFaceO *>>::_Vector_impl" }
%"struct.std::_Vector_base<CFaceO *, std::allocator<CFaceO *>>::_Vector_impl" = type { %"struct.std::_Vector_base<CFaceO *, std::allocator<CFaceO *>>::_Vector_impl_data" }
%"struct.std::_Vector_base<CFaceO *, std::allocator<CFaceO *>>::_Vector_impl_data" = type { ptr, ptr, ptr }
%"class.std::vector.21" = type { %"struct.std::_Vector_base.22" }
%"struct.std::_Vector_base.22" = type { %"struct.std::_Vector_base<CVertexO *, std::allocator<CVertexO *>>::_Vector_impl" }
%"struct.std::_Vector_base<CVertexO *, std::allocator<CVertexO *>>::_Vector_impl" = type { %"struct.std::_Vector_base<CVertexO *, std::allocator<CVertexO *>>::_Vector_impl_data" }
%"struct.std::_Vector_base<CVertexO *, std::allocator<CVertexO *>>::_Vector_impl_data" = type { ptr, ptr, ptr }

; Function Attrs: mustprogress nounwind uwtable
define void @_ZN16SampleEditPlugin7endEditER9MeshModelP6GLAreaP26MLSceneGLSharedDataContext(ptr noundef nonnull align 8 dereferenceable(132) %0, ptr noundef nonnull align 8 dereferenceable(1288) %1, ptr noundef %2, ptr noundef %3) unnamed_addr #4 align 2 {
  %5 = alloca ptr, align 8
  %6 = alloca ptr, align 8
  %7 = alloca ptr, align 8
  %8 = alloca ptr, align 8
  store ptr %0, ptr %5, align 8
  store ptr %1, ptr %6, align 8
  store ptr %2, ptr %7, align 8
  store ptr %3, ptr %8, align 8
  %9 = load ptr, ptr %5, align 8
  %10 = getelementptr inbounds %class.SampleEditPlugin, ptr %9, i32 0, i32 4
  store i8 0, ptr %10, align 8
  %11 = getelementptr inbounds %class.SampleEditPlugin, ptr %9, i32 0, i32 6
  store i32 0, ptr %11, align 4
  %12 = getelementptr inbounds %class.SampleEditPlugin, ptr %9, i32 0, i32 7
  store ptr null, ptr %12, align 8
  %13 = getelementptr inbounds %class.SampleEditPlugin, ptr %9, i32 0, i32 8
  store ptr null, ptr %13, align 8
  %14 = getelementptr inbounds %class.SampleEditPlugin, ptr %9, i32 0, i32 11
  store i32 0, ptr %14, align 8
  ret void
}

; Function Attrs: uwtable
define void @_ZThn16_N16SampleEditPlugin7endEditER9MeshModelP6GLAreaP26MLSceneGLSharedDataContext(ptr noundef %0, ptr noundef nonnull align 8 dereferenceable(1288) %1, ptr noundef %2, ptr noundef %3) unnamed_addr #0 align 2 {
  %5 = alloca ptr, align 8
  %6 = alloca ptr, align 8
  %7 = alloca ptr, align 8
  %8 = alloca ptr, align 8
  store ptr %0, ptr %5, align 8
  store ptr %1, ptr %6, align 8
  store ptr %2, ptr %7, align 8
  store ptr %3, ptr %8, align 8
  %9 = load ptr, ptr %5, align 8
  %10 = getelementptr inbounds i8, ptr %9, i64 -16
  %11 = load ptr, ptr %6, align 8
  %12 = load ptr, ptr %7, align 8
  %13 = load ptr, ptr %8, align 8
  tail call void @_ZN16SampleEditPlugin7endEditER9MeshModelP6GLAreaP26MLSceneGLSharedDataContext(ptr noundef nonnull align 8 dereferenceable(132) %10, ptr noundef nonnull align 8 dereferenceable(1288) %11, ptr noundef %12, ptr noundef %13)
  ret void
}