; Function Attrs: mustprogress nofree norecurse nosync nounwind willreturn memory(argmem: write) uwtable
define void @_ZThn16_N16SampleEditPlugin7endEditER9MeshModelP6GLAreaP26MLSceneGLSharedDataContext(ptr nocapture noundef writeonly %0, ptr nocapture noundef nonnull readnone align 8 dereferenceable(1288) %1, ptr nocapture noundef readnone %2, ptr nocapture noundef readnone %3) unnamed_addr #18 align 2 {
  %5 = getelementptr inbounds i8, ptr %0, i64 40
  store i8 0, ptr %5, align 8
  %6 = getelementptr inbounds i8, ptr %0, i64 44
  %7 = getelementptr inbounds i8, ptr %0, i64 112
  store i32 0, ptr %7, align 8
  tail call void @llvm.memset.p0.i64(ptr noundef nonnull align 4 dereferenceable(20) %6, i8 0, i64 20, i1 false)
  ret void
}